Certificate:
    Data:
        Version: 3 (0x2)
        Serial Number: 1 (0x1)
        Signature Algorithm: sha256WithRSAEncryption
        Issuer: C=CN, ST=GD, L=SZ, O=TEST, OU=NULL, CN=TEST EV Root CA
        Validity
            Not Before: Apr  2 08:26:17 2024 GMT
            Not After : Apr  2 08:26:17 2025 GMT
        Subject: C=CN, ST=GD, O=TEST, OU=NULL, CN=www.localtest.cn
        Subject Public Key Info:
            Public Key Algorithm: rsaEncryption
                Public-Key: (2048 bit)
                Modulus:
                    00:dd:a0:bd:08:18:e3:2b:aa:d1:58:e8:6b:3a:b0:
                    3e:04:45:fa:78:1f:42:ae:57:3b:62:18:04:43:86:
                    08:bf:dd:80:e0:e5:c3:ce:5f:93:a9:18:ab:51:a7:
                    01:a2:81:60:ef:ac:93:f7:a9:14:dc:d4:d5:61:8e:
                    48:b9:f7:a8:a5:77:79:b5:e8:3c:0f:61:e2:82:a2:
                    38:d5:31:bf:ba:42:3a:70:ca:11:d3:33:94:6c:f8:
                    ab:eb:1f:59:3f:87:05:0f:bd:98:70:45:ee:11:34:
                    69:35:90:f0:54:d0:48:dc:f2:6f:be:eb:39:87:82:
                    3b:f8:5a:62:c8:b6:1b:0e:34:02:40:70:c0:a2:b0:
                    3d:cb:27:e0:5e:b4:29:23:7f:f6:32:97:fc:e9:04:
                    55:4a:14:ea:5d:69:4b:0a:c1:8c:9b:c0:e7:fe:91:
                    95:98:84:16:ee:90:e3:c5:20:4e:19:2f:02:91:c0:
                    6f:53:8a:8c:c2:73:c0:43:9a:bc:fd:c1:a8:df:23:
                    9c:81:67:e5:2e:fb:5b:f6:be:52:92:24:23:8e:fd:
                    9f:70:3c:79:1a:94:2b:85:5d:76:e8:aa:55:5f:a2:
                    53:b5:18:ff:44:39:0d:e2:fe:01:35:e8:da:3c:bc:
                    bc:67:b5:85:3d:f0:b6:bb:a7:ad:a7:3f:24:f0:53:
                    43:ad
                Exponent: 65537 (0x10001)
        X509v3 extensions:
            X509v3 Basic Constraints: 
                CA:FALSE
            X509v3 Key Usage: 
                Digital Signature, Non Repudiation, Key Encipherment, Data Encipherment, Key Agreement
            X509v3 Extended Key Usage: 
                TLS Web Server Authentication, TLS Web Client Authentication, 2.23.140.1.1, 2.16.840.1.114412.2.1
            X509v3 Subject Key Identifier: 
                93:28:4D:89:F1:D6:90:92:C4:E1:FD:9F:11:D6:36:3E:A4:B7:7B:3F
            X509v3 Authority Key Identifier: 
                CD:38:46:3B:F4:4E:6F:6E:2D:55:06:D2:86:1E:6B:1C:0E:94:22:95
            X509v3 Subject Alternative Name: 
                DNS:www.localtest.cn
    Signature Algorithm: sha256WithRSAEncryption
    Signature Value:
        b7:f5:bc:14:28:3d:fa:6d:b1:37:fe:37:72:4f:cf:64:44:c9:
        df:aa:08:52:dc:93:e9:88:6f:ad:41:1d:2a:1f:d6:8e:0f:ab:
        bb:05:7f:e5:c5:14:8e:18:4e:9d:81:7d:6d:e3:1a:eb:e5:85:
        68:6f:a0:46:9f:e7:78:88:09:56:36:c0:d1:51:e5:98:6a:34:
        12:43:3b:2f:6e:ad:ba:70:61:fd:fe:73:e7:c8:f1:f9:9b:e7:
        c7:67:e6:77:06:a5:d8:82:b5:39:a8:e5:a3:45:67:cf:7e:15:
        23:f4:26:f3:78:6c:7f:e9:b2:e0:8d:c7:bc:67:9f:b3:55:a0:
        61:2b:53:de:be:39:9b:30:d4:c4:43:4c:67:21:e6:7e:36:48:
        d7:94:ef:a8:8d:2a:e9:03:47:94:06:f9:4e:38:73:43:2a:d9:
        d8:d2:fb:ad:cd:7b:f6:1d:66:3e:af:19:19:88:ab:89:e7:4a:
        48:39:73:3d:00:5c:c2:a7:39:f0:cd:ef:24:9f:13:d2:ba:2e:
        23:c9:d0:d4:88:a2:af:ed:a2:c4:da:6d:83:00:48:3d:59:d6:
        f1:ee:87:c3:fa:49:fb:cc:6d:97:2f:28:82:17:eb:04:e8:07:
        60:a0:1c:83:0c:9d:d7:f8:84:4c:7f:14:47:90:ce:e2:8c:c7:
        3e:0f:30:b4
-----BEGIN CERTIFICATE-----
MIID1zCCAr+gAwIBAgIBATANBgkqhkiG9w0BAQsFADBfMQswCQYDVQQGEwJDTjEL
MAkGA1UECAwCR0QxCzAJBgNVBAcMAlNaMQ0wCwYDVQQKDARURVNUMQ0wCwYDVQQL
DAROVUxMMRgwFgYDVQQDDA9URVNUIEVWIFJvb3QgQ0EwHhcNMjQwNDAyMDgyNjE3
WhcNMjUwNDAyMDgyNjE3WjBTMQswCQYDVQQGEwJDTjELMAkGA1UECAwCR0QxDTAL
BgNVBAoMBFRFU1QxDTALBgNVBAsMBE5VTEwxGTAXBgNVBAMMEHd3dy5sb2NhbHRl
c3QuY24wggEiMA0GCSqGSIb3DQEBAQUAA4IBDwAwggEKAoIBAQDdoL0IGOMrqtFY
6Gs6sD4ERfp4H0KuVztiGARDhgi/3YDg5cPOX5OpGKtRpwGigWDvrJP3qRTc1NVh
jki596ild3m16DwPYeKCojjVMb+6QjpwyhHTM5Rs+KvrH1k/hwUPvZhwRe4RNGk1
kPBU0Ejc8m++6zmHgjv4WmLIthsONAJAcMCisD3LJ+BetCkjf/Yyl/zpBFVKFOpd
aUsKwYybwOf+kZWYhBbukOPFIE4ZLwKRwG9TiozCc8BDmrz9wajfI5yBZ+Uu+1v2
vlKSJCOO/Z9wPHkalCuFXXboqlVfolO1GP9EOQ3i/gE16No8vLxntYU98La7p62n
PyTwU0OtAgMBAAGjgakwgaYwCQYDVR0TBAIwADALBgNVHQ8EBAMCA/gwLwYDVR0l
BCgwJgYIKwYBBQUHAwEGCCsGAQUFBwMCBgVngQwBAQYJYIZIAYb9bAIBMB0GA1Ud
DgQWBBSTKE2J8daQksTh/Z8R1jY+pLd7PzAfBgNVHSMEGDAWgBTNOEY79E5vbi1V
BtKGHmscDpQilTAbBgNVHREEFDASghB3d3cubG9jYWx0ZXN0LmNuMA0GCSqGSIb3
DQEBCwUAA4IBAQC39bwUKD36bbE3/jdyT89kRMnfqghS3JPpiG+tQR0qH9aOD6u7
BX/lxRSOGE6dgX1t4xrr5YVob6BGn+d4iAlWNsDRUeWYajQSQzsvbq26cGH9/nPn
yPH5m+fHZ+Z3BqXYgrU5qOWjRWfPfhUj9CbzeGx/6bLgjce8Z5+zVaBhK1Pevjmb
MNTEQ0xnIeZ+NkjXlO+ojSrpA0eUBvlOOHNDKtnY0vutzXv2HWY+rxkZiKuJ50pI
OXM9AFzCpznwze8knxPSui4jydDUiKKv7aLE2m2DAEg9Wdbx7ofD+kn7zG2XLyiC
F+sE6AdgoByDDJ3X+IRMfxRHkM7ijMc+DzC0
-----END CERTIFICATE-----
